; Function Attrs: mustprogress nofree norecurse nosync nounwind willreturn memory(argmem: readwrite) uwtable
define void @_ZN10open_spiel11tic_tac_toe14TicTacToeState10UndoActionEil(ptr nocapture noundef nonnull align 8 dereferenceable(108) %0, i32 noundef %1, i64 noundef %2) unnamed_addr #9 align 2 {
  %4 = getelementptr inbounds nuw i8, ptr %0, i64 60
  %5 = getelementptr inbounds [9 x i32], ptr %4, i64 0, i64 %2
  store i32 0, ptr %5, align 4
  %6 = getelementptr inbounds nuw i8, ptr %0, i64 96
  store i32 %1, ptr %6, align 8
  %7 = getelementptr inbounds nuw i8, ptr %0, i64 100
  store i32 -3, ptr %7, align 4
  %8 = getelementptr inbounds nuw i8, ptr %0, i64 104
  %9 = load i32, ptr %8, align 8
  %10 = add nsw i32 %9, -1
  store i32 %10, ptr %8, align 8
  %11 = getelementptr inbounds i8, ptr %0, i64 40
  %12 = load ptr, ptr %11, align 8
  %13 = getelementptr inbounds i8, ptr %12, i64 -16
  store ptr %13, ptr %11, align 8
  %14 = getelementptr inbounds nuw i8, ptr %0, i64 56
  %15 = load i32, ptr %14, align 8
  %16 = add nsw i32 %15, -1
  store i32 %16, ptr %14, align 8
  ret void
}